; ModuleID = 'source-C-CXX/61/137.c'
source_filename = "source-C-CXX/61/137.c"
target datalayout = "e-m:e-p270:32:32-p271:32:32-p272:64:64-i64:64-f80:128-n8:16:32:64-S128"
target triple = "x86_64-pc-linux-gnu"

; Function Attrs: nounwind sspstrong uwtable
define dso_local i32 @main() local_unnamed_addr #0 {
  %1 = alloca [210 x i8], align 16
  %2 = getelementptr inbounds [210 x i8], [210 x i8]* %1, i64 0, i64 0
  call void @llvm.lifetime.start.p0i8(i64 210, i8* nonnull %2) #5
  %3 = call i32 (i8*, ...) bitcast (i32 (...)* @gets to i32 (i8*, ...)*)(i8* nonnull %2) #5
  %4 = load i8, i8* %2, align 16, !tbaa !5
  %5 = sext i8 %4 to i32
  %6 = call i32 @putchar(i32 %5)
  %7 = call i64 @strlen(i8* noundef nonnull %2) #6
  %8 = trunc i64 %7 to i32
  %9 = icmp sgt i32 %8, 1
  br i1 %9, label %10, label %28

10:                                               ; preds = %0
  %11 = and i64 %7, 4294967295
  br label %12

12:                                               ; preds = %10, %25
  %13 = phi i64 [ 1, %10 ], [ %26, %25 ]
  %14 = getelementptr inbounds [210 x i8], [210 x i8]* %1, i64 0, i64 %13
  %15 = load i8, i8* %14, align 1, !tbaa !5
  %16 = icmp eq i8 %15, 32
  br i1 %16, label %17, label %22

17:                                               ; preds = %12
  %18 = add nsw i64 %13, -1
  %19 = getelementptr inbounds [210 x i8], [210 x i8]* %1, i64 0, i64 %18
  %20 = load i8, i8* %19, align 1, !tbaa !5
  %21 = icmp eq i8 %20, 32
  br i1 %21, label %25, label %22

22:                                               ; preds = %17, %12
  %23 = sext i8 %15 to i32
  %24 = call i32 @putchar(i32 %23)
  br label %25

25:                                               ; preds = %22, %17
  %26 = add nuw nsw i64 %13, 1
  %27 = icmp eq i64 %26, %11
  br i1 %27, label %28, label %12, !llvm.loop !8

28:                                               ; preds = %25, %0
  %29 = call i32 @putchar(i32 10)
  call void @llvm.lifetime.end.p0i8(i64 210, i8* nonnull %2) #5
  ret i32 0
}

; Function Attrs: argmemonly mustprogress nofree nosync nounwind willreturn
declare void @llvm.lifetime.start.p0i8(i64 immarg, i8* nocapture) #1

declare i32 @gets(...) local_unnamed_addr #2

; Function Attrs: argmemonly mustprogress nofree nounwind readonly willreturn
declare i64 @strlen(i8* nocapture) local_unnamed_addr #3

; Function Attrs: argmemonly mustprogress nofree nosync nounwind willreturn
declare void @llvm.lifetime.end.p0i8(i64 immarg, i8* nocapture) #1

; Function Attrs: nofree nounwind
declare noundef i32 @putchar(i32 noundef) local_unnamed_addr #4


!llvm.module.flags = !{!0, !1, !2, !3}
!llvm.ident = !{!4}

!0 = !{i32 1, !"wchar_size", i32 4}
!1 = !{i32 7, !"PIC Level", i32 2}
!2 = !{i32 7, !"PIE Level", i32 2}
!3 = !{i32 7, !"uwtable", i32 1}
!4 = !{!"clang version 13.0.0"}
!5 = !{!6, !6, i64 0}
!6 = !{!"omnipotent char", !7, i64 0}
!7 = !{!"Simple C/C++ TBAA"}
!8 = distinct !{!8, !9}
!9 = !{!"llvm.loop.mustprogress"}
